target datalayout = "e-m:e-p270:32:32-p271:32:32-p272:64:64-i64:64-i128:128-f80:128-n8:16:32:64-S128"
target triple = "x86_64-pc-linux-gnu"

; Function Attrs: nounwind uwtable
define internal float @weuclidean_kernel(ptr noundef %0, ptr noundef %1) #2 {
  %3 = alloca ptr, align 8
  %4 = alloca ptr, align 8
  %5 = alloca float, align 4
  %6 = alloca float, align 4
  store ptr %0, ptr %3, align 8, !tbaa !73
  store ptr %1, ptr %4, align 8, !tbaa !73
  call void @llvm.lifetime.start.p0(i64 4, ptr %5) #10
  %7 = load ptr, ptr %3, align 8, !tbaa !73
  %8 = getelementptr inbounds float, ptr %7, i64 0
  %9 = load float, ptr %8, align 4, !tbaa !75
  %10 = load ptr, ptr %4, align 8, !tbaa !73
  %11 = getelementptr inbounds float, ptr %10, i64 0
  %12 = load float, ptr %11, align 4, !tbaa !75
  %13 = fadd nsz float %9, %12
  %14 = fmul nsz float %13, 5.000000e-01
  store float %14, ptr %5, align 4, !tbaa !75
  call void @llvm.lifetime.start.p0(i64 4, ptr %6) #10
  %15 = load ptr, ptr %3, align 8, !tbaa !73
  %16 = getelementptr inbounds float, ptr %15, i64 0
  %17 = load float, ptr %16, align 4, !tbaa !75
  %18 = load ptr, ptr %4, align 8, !tbaa !73
  %19 = getelementptr inbounds float, ptr %18, i64 0
  %20 = load float, ptr %19, align 4, !tbaa !75
  %21 = fsub nsz float %17, %20
  %22 = load ptr, ptr %3, align 8, !tbaa !73
  %23 = getelementptr inbounds float, ptr %22, i64 0
  %24 = load float, ptr %23, align 4, !tbaa !75
  %25 = load ptr, ptr %4, align 8, !tbaa !73
  %26 = getelementptr inbounds float, ptr %25, i64 0
  %27 = load float, ptr %26, align 4, !tbaa !75
  %28 = fsub nsz float %24, %27
  %29 = fmul nsz float %21, %28
  %30 = load float, ptr %5, align 4, !tbaa !75
  %31 = fadd nsz float 2.000000e+00, %30
  %32 = load ptr, ptr %3, align 8, !tbaa !73
  %33 = getelementptr inbounds float, ptr %32, i64 1
  %34 = load float, ptr %33, align 4, !tbaa !75
  %35 = load ptr, ptr %4, align 8, !tbaa !73
  %36 = getelementptr inbounds float, ptr %35, i64 1
  %37 = load float, ptr %36, align 4, !tbaa !75
  %38 = fsub nsz float %34, %37
  %39 = load ptr, ptr %3, align 8, !tbaa !73
  %40 = getelementptr inbounds float, ptr %39, i64 1
  %41 = load float, ptr %40, align 4, !tbaa !75
  %42 = load ptr, ptr %4, align 8, !tbaa !73
  %43 = getelementptr inbounds float, ptr %42, i64 1
  %44 = load float, ptr %43, align 4, !tbaa !75
  %45 = fsub nsz float %41, %44
  %46 = fmul nsz float %38, %45
  %47 = fmul nsz float %46, 4.000000e+00
  %48 = call nsz float @llvm.fmuladd.f32(float %29, float %31, float %47)
  %49 = load ptr, ptr %3, align 8, !tbaa !73
  %50 = getelementptr inbounds float, ptr %49, i64 2
  %51 = load float, ptr %50, align 4, !tbaa !75
  %52 = load ptr, ptr %4, align 8, !tbaa !73
  %53 = getelementptr inbounds float, ptr %52, i64 2
  %54 = load float, ptr %53, align 4, !tbaa !75
  %55 = fsub nsz float %51, %54
  %56 = load ptr, ptr %3, align 8, !tbaa !73
  %57 = getelementptr inbounds float, ptr %56, i64 2
  %58 = load float, ptr %57, align 4, !tbaa !75
  %59 = load ptr, ptr %4, align 8, !tbaa !73
  %60 = getelementptr inbounds float, ptr %59, i64 2
  %61 = load float, ptr %60, align 4, !tbaa !75
  %62 = fsub nsz float %58, %61
  %63 = fmul nsz float %55, %62
  %64 = load float, ptr %5, align 4, !tbaa !75
  %65 = fsub nsz float 3.000000e+00, %64
  %66 = call nsz float @llvm.fmuladd.f32(float %63, float %65, float %48)
  store float %66, ptr %6, align 4, !tbaa !75
  %67 = load float, ptr %6, align 4, !tbaa !75
  %68 = call nsz float @llvm.sqrt.f32(float %67)
  call void @llvm.lifetime.end.p0(i64 4, ptr %6) #10
  call void @llvm.lifetime.end.p0(i64 4, ptr %5) #10
  ret float %68
}