; Function Attrs: mustprogress nofree norecurse nosync nounwind willreturn memory(argmem: read) uwtable
define internal float @weuclidean_kernel(ptr noundef readonly captures(none) %0, ptr noundef readonly captures(none) %1) #4 {
  %3 = load float, ptr %0, align 4, !tbaa !58
  %4 = load float, ptr %1, align 4, !tbaa !58
  %5 = fadd nsz float %3, %4
  %6 = fmul nsz float %5, 5.000000e-01
  %7 = fsub nsz float %3, %4
  %8 = fmul nsz float %7, %7
  %9 = fadd nsz float %6, 2.000000e+00
  %10 = getelementptr inbounds nuw i8, ptr %0, i64 4
  %11 = load float, ptr %10, align 4, !tbaa !58
  %12 = getelementptr inbounds nuw i8, ptr %1, i64 4
  %13 = load float, ptr %12, align 4, !tbaa !58
  %14 = fsub nsz float %11, %13
  %15 = fmul nsz float %14, %14
  %16 = fmul nsz float %15, 4.000000e+00
  %17 = tail call nsz float @llvm.fmuladd.f32(float %8, float %9, float %16)
  %18 = getelementptr inbounds nuw i8, ptr %0, i64 8
  %19 = load float, ptr %18, align 4, !tbaa !58
  %20 = getelementptr inbounds nuw i8, ptr %1, i64 8
  %21 = load float, ptr %20, align 4, !tbaa !58
  %22 = fsub nsz float %19, %21
  %23 = fmul nsz float %22, %22
  %24 = fsub nsz float 3.000000e+00, %6
  %25 = tail call nsz float @llvm.fmuladd.f32(float %23, float %24, float %17)
  %26 = tail call nsz float @llvm.sqrt.f32(float %25)
  ret float %26
}